; Function Attrs: nounwind sspstrong uwtable
define dso_local zeroext i1 @device_type_is_dynamic_sysbus(ptr noundef readonly captures(none) %mc, ptr noundef %type) local_unnamed_addr #0 {
entry:
  %call = tail call ptr @object_class_by_name(ptr noundef %type) #16
  %allowed_dynamic_sysbus_devices = getelementptr inbounds nuw i8, ptr %mc, i64 280
  %wl.06 = load ptr, ptr %allowed_dynamic_sysbus_devices, align 8
  %tobool17 = icmp eq ptr %wl.06, null
  br i1 %tobool17, label %for.end, label %for.body

for.body:                                         ; preds = %entry, %for.body
  %wl.09 = phi ptr [ %wl.0, %for.body ], [ %wl.06, %entry ]
  %value = getelementptr inbounds nuw i8, ptr %wl.09, i64 8
  %0 = load ptr, ptr %value, align 8
  %call2 = tail call ptr @object_class_dynamic_cast(ptr noundef %call, ptr noundef %0) #16
  %tobool3 = icmp ne ptr %call2, null
  %wl.0 = load ptr, ptr %wl.09, align 8
  %tobool1 = icmp eq ptr %wl.0, null
  %.not = select i1 %tobool3, i1 true, i1 %tobool1
  br i1 %.not, label %for.end, label %for.body, !llvm.loop !5

for.end:                                          ; preds = %for.body, %entry
  %allowed.0.lcssa = phi i1 [ false, %entry ], [ %tobool3, %for.body ]
  ret i1 %allowed.0.lcssa
}